target datalayout = "e-m:e-p270:32:32-p271:32:32-p272:64:64-i64:64-i128:128-f80:128-n8:16:32:64-S128"
target triple = "x86_64-pc-linux-gnu"

@.str.90 = private unnamed_addr constant [8 x i8] c"collect\00", align 1
@.str.91 = private unnamed_addr constant [6 x i8] c"count\00", align 1
@.str.92 = private unnamed_addr constant [56 x i8] c"collectgarbage must be called with 'count' or 'collect'\00", align 1

; Function Attrs: mustprogress uwtable
define internal noundef i32 @_ZL18lua_collectgarbageP9lua_State(ptr noundef %0) #1 {
  %2 = alloca i32, align 4
  %3 = alloca ptr, align 8
  %4 = alloca ptr, align 8
  %5 = alloca i32, align 4
  store ptr %0, ptr %3, align 8
  %6 = load ptr, ptr %3, align 8
  %7 = call noundef ptr @_Z15luaL_optlstringP9lua_StateiPKcPm(ptr noundef %6, i32 noundef 1, ptr noundef @.str.90, ptr noundef null)
  store ptr %7, ptr %4, align 8
  %8 = load ptr, ptr %4, align 8
  %9 = call i32 @strcmp(ptr noundef %8, ptr noundef @.str.90) #13
  %10 = icmp eq i32 %9, 0
  br i1 %10, label %11, label %14

11:                                               ; preds = %1
  %12 = load ptr, ptr %3, align 8
  %13 = call noundef i32 @_Z6lua_gcP9lua_Stateii(ptr noundef %12, i32 noundef 2, i32 noundef 0)
  store i32 0, ptr %2, align 4
  br label %26

14:                                               ; preds = %1
  %15 = load ptr, ptr %4, align 8
  %16 = call i32 @strcmp(ptr noundef %15, ptr noundef @.str.91) #13
  %17 = icmp eq i32 %16, 0
  br i1 %17, label %18, label %24

18:                                               ; preds = %14
  %19 = load ptr, ptr %3, align 8
  %20 = call noundef i32 @_Z6lua_gcP9lua_Stateii(ptr noundef %19, i32 noundef 3, i32 noundef 0)
  store i32 %20, ptr %5, align 4
  %21 = load ptr, ptr %3, align 8
  %22 = load i32, ptr %5, align 4
  %23 = sitofp i32 %22 to double
  call void @_Z14lua_pushnumberP9lua_Stated(ptr noundef %21, double noundef %23)
  store i32 1, ptr %2, align 4
  br label %26

24:                                               ; preds = %14
  %25 = load ptr, ptr %3, align 8
  call void (ptr, ptr, ...) @_Z11luaL_errorLP9lua_StatePKcz(ptr noundef %25, ptr noundef @.str.92) #12
  unreachable

26:                                               ; preds = %18, %11
  %27 = load i32, ptr %2, align 4
  ret i32 %27
}