; Function Attrs: mustprogress uwtable
define internal noundef range(i32 0, 2) i32 @_ZL18lua_collectgarbageP9lua_State(ptr noundef %0) #1 {
  %2 = tail call noundef ptr @_Z15luaL_optlstringP9lua_StateiPKcPm(ptr noundef %0, i32 noundef 1, ptr noundef nonnull @.str.90, ptr noundef null)
  %3 = tail call i32 @strcmp(ptr noundef nonnull dereferenceable(1) %2, ptr noundef nonnull dereferenceable(8) @.str.90) #25
  %4 = icmp eq i32 %3, 0
  br i1 %4, label %5, label %7

5:                                                ; preds = %1
  %6 = tail call noundef i32 @_Z6lua_gcP9lua_Stateii(ptr noundef %0, i32 noundef 2, i32 noundef 0)
  br label %14

7:                                                ; preds = %1
  %8 = tail call i32 @strcmp(ptr noundef nonnull dereferenceable(1) %2, ptr noundef nonnull dereferenceable(6) @.str.91) #25
  %9 = icmp eq i32 %8, 0
  br i1 %9, label %10, label %13

10:                                               ; preds = %7
  %11 = tail call noundef i32 @_Z6lua_gcP9lua_Stateii(ptr noundef %0, i32 noundef 3, i32 noundef 0)
  %12 = sitofp i32 %11 to double
  tail call void @_Z14lua_pushnumberP9lua_Stated(ptr noundef %0, double noundef %12)
  br label %14

13:                                               ; preds = %7
  tail call void (ptr, ptr, ...) @_Z11luaL_errorLP9lua_StatePKcz(ptr noundef %0, ptr noundef nonnull @.str.92) #23
  unreachable

14:                                               ; preds = %10, %5
  %.0 = phi i32 [ 0, %5 ], [ 1, %10 ]
  ret i32 %.0
}